(dp1
S'dailywhat'
p2
S'http://thedailywh.at'
p3
sS'turkey'
p4
S'OPENEDONJUNE23RD'
p5
sS'wobsite'
p6
S'http://xkcd.com/148/'
p7
sS'google'
p8
S'http://google.com'
p9
sS'gog'
p10
S'http://gog.com'
p11
sS'hire'
p12
S'http://hire.flashmatt.com'
p13
sS'd2d'
p14
S'http://direct2drive.com'
p15
sS'facebook'
p16
S'http://facebook.com'
p17
sS'steam'
p18
S'http://store.steamdeal.com'
p19
sS'blag'
p20
S'http://xkcd.com/148/'
p21
s.